; ModuleID = '61/1465.c'
source_filename = "61/1465.c"
target datalayout = "e-m:e-p270:32:32-p271:32:32-p272:64:64-i64:64-f80:128-n8:16:32:64-S128"
target triple = "x86_64-pc-linux-gnu"

@.str = private unnamed_addr constant [3 x i8] c"%d\00", align 1
@.str.1 = private unnamed_addr constant [4 x i8] c"%d\0A\00", align 1

; Function Attrs: noinline nounwind uwtable
define dso_local i32 @F(i32 %0) #0 {
  %2 = alloca i32, align 4
  %3 = alloca i8*, align 8
  %4 = alloca i64, align 8
  %5 = alloca i32, align 4
  store i32 %0, i32* %2, align 4
  %6 = load i32, i32* %2, align 4
  %7 = zext i32 %6 to i64
  %8 = call i8* @llvm.stacksave()
  store i8* %8, i8** %3, align 8
  %9 = alloca i32, i64 %7, align 16
  store i64 %7, i64* %4, align 8
  store i32 0, i32* %5, align 4
  br label %10

10:                                               ; preds = %40, %1
  %11 = load i32, i32* %5, align 4
  %12 = load i32, i32* %2, align 4
  %13 = icmp slt i32 %11, %12
  br i1 %13, label %14, label %43

14:                                               ; preds = %10
  %15 = load i32, i32* %5, align 4
  %16 = icmp eq i32 %15, 1
  br i1 %16, label %20, label %17

17:                                               ; preds = %14
  %18 = load i32, i32* %5, align 4
  %19 = icmp eq i32 %18, 0
  br i1 %19, label %20, label %24

20:                                               ; preds = %17, %14
  %21 = load i32, i32* %5, align 4
  %22 = sext i32 %21 to i64
  %23 = getelementptr inbounds i32, i32* %9, i64 %22
  store i32 1, i32* %23, align 4
  br label %39

24:                                               ; preds = %17
  %25 = load i32, i32* %5, align 4
  %26 = sub nsw i32 %25, 1
  %27 = sext i32 %26 to i64
  %28 = getelementptr inbounds i32, i32* %9, i64 %27
  %29 = load i32, i32* %28, align 4
  %30 = load i32, i32* %5, align 4
  %31 = sub nsw i32 %30, 2
  %32 = sext i32 %31 to i64
  %33 = getelementptr inbounds i32, i32* %9, i64 %32
  %34 = load i32, i32* %33, align 4
  %35 = add nsw i32 %29, %34
  %36 = load i32, i32* %5, align 4
  %37 = sext i32 %36 to i64
  %38 = getelementptr inbounds i32, i32* %9, i64 %37
  store i32 %35, i32* %38, align 4
  br label %39

39:                                               ; preds = %24, %20
  br label %40

40:                                               ; preds = %39
  %41 = load i32, i32* %5, align 4
  %42 = add nsw i32 %41, 1
  store i32 %42, i32* %5, align 4
  br label %10

43:                                               ; preds = %10
  %44 = load i32, i32* %2, align 4
  %45 = sub nsw i32 %44, 1
  %46 = sext i32 %45 to i64
  %47 = getelementptr inbounds i32, i32* %9, i64 %46
  %48 = load i32, i32* %47, align 4
  %49 = load i8*, i8** %3, align 8
  call void @llvm.stackrestore(i8* %49)
  ret i32 %48
}

; Function Attrs: nounwind
declare i8* @llvm.stacksave() #1

; Function Attrs: nounwind
declare void @llvm.stackrestore(i8*) #1

; Function Attrs: noinline nounwind uwtable
define dso_local i32 @main() #0 {
  %1 = alloca i32, align 4
  %2 = alloca i32, align 4
  %3 = alloca i32, align 4
  %4 = alloca i8*, align 8
  %5 = alloca i64, align 8
  %6 = alloca i64, align 8
  store i32 0, i32* %1, align 4
  %7 = call i32 (i8*, ...) @__isoc99_scanf(i8* getelementptr inbounds ([3 x i8], [3 x i8]* @.str, i64 0, i64 0), i32* %2)
  %8 = load i32, i32* %2, align 4
  %9 = zext i32 %8 to i64
  %10 = call i8* @llvm.stacksave()
  store i8* %10, i8** %4, align 8
  %11 = alloca i32, i64 %9, align 16
  store i64 %9, i64* %5, align 8
  %12 = load i32, i32* %2, align 4
  %13 = zext i32 %12 to i64
  %14 = alloca i32, i64 %13, align 16
  store i64 %13, i64* %6, align 8
  store i32 0, i32* %3, align 4
  br label %15

15:                                               ; preds = %32, %0
  %16 = load i32, i32* %3, align 4
  %17 = load i32, i32* %2, align 4
  %18 = icmp slt i32 %16, %17
  br i1 %18, label %19, label %35

19:                                               ; preds = %15
  %20 = load i32, i32* %3, align 4
  %21 = sext i32 %20 to i64
  %22 = getelementptr inbounds i32, i32* %11, i64 %21
  %23 = call i32 (i8*, ...) @__isoc99_scanf(i8* getelementptr inbounds ([3 x i8], [3 x i8]* @.str, i64 0, i64 0), i32* %22)
  %24 = load i32, i32* %3, align 4
  %25 = sext i32 %24 to i64
  %26 = getelementptr inbounds i32, i32* %11, i64 %25
  %27 = load i32, i32* %26, align 4
  %28 = call i32 @F(i32 %27)
  %29 = load i32, i32* %3, align 4
  %30 = sext i32 %29 to i64
  %31 = getelementptr inbounds i32, i32* %14, i64 %30
  store i32 %28, i32* %31, align 4
  br label %32

32:                                               ; preds = %19
  %33 = load i32, i32* %3, align 4
  %34 = add nsw i32 %33, 1
  store i32 %34, i32* %3, align 4
  br label %15

35:                                               ; preds = %15
  store i32 0, i32* %3, align 4
  br label %36

36:                                               ; preds = %46, %35
  %37 = load i32, i32* %3, align 4
  %38 = load i32, i32* %2, align 4
  %39 = icmp slt i32 %37, %38
  br i1 %39, label %40, label %49

40:                                               ; preds = %36
  %41 = load i32, i32* %3, align 4
  %42 = sext i32 %41 to i64
  %43 = getelementptr inbounds i32, i32* %14, i64 %42
  %44 = load i32, i32* %43, align 4
  %45 = call i32 (i8*, ...) @printf(i8* getelementptr inbounds ([4 x i8], [4 x i8]* @.str.1, i64 0, i64 0), i32 %44)
  br label %46

46:                                               ; preds = %40
  %47 = load i32, i32* %3, align 4
  %48 = add nsw i32 %47, 1
  store i32 %48, i32* %3, align 4
  br label %36

49:                                               ; preds = %36
  store i32 0, i32* %1, align 4
  %50 = load i8*, i8** %4, align 8
  call void @llvm.stackrestore(i8* %50)
  %51 = load i32, i32* %1, align 4
  ret i32 %51
}

declare dso_local i32 @__isoc99_scanf(i8*, ...) #2

declare dso_local i32 @printf(i8*, ...) #2


!llvm.module.flags = !{!0}
!llvm.ident = !{!1}

!0 = !{i32 1, !"wchar_size", i32 4}
!1 = !{!"clang version 10.0.0-4ubuntu1 "}
